; Function Attrs: nounwind uwtable
define i32 @Acec_MatchCountCommon(ptr noundef readonly captures(none) %0, ptr noundef readonly captures(none) %1, i32 noundef %2) local_unnamed_addr #2 {
  %4 = tail call noalias dereferenceable_or_null(16) ptr @malloc(i64 noundef 16) #19
  %5 = getelementptr inbounds nuw i8, ptr %4, i64 4
  store i32 100, ptr %4, align 8
  %6 = tail call noalias dereferenceable_or_null(400) ptr @malloc(i64 noundef 400) #19
  %7 = getelementptr inbounds nuw i8, ptr %4, i64 8
  store ptr %6, ptr %7, align 8
  %8 = getelementptr i8, ptr %0, i64 4
  %.val2027 = load i32, ptr %8, align 4
  %9 = icmp sgt i32 %.val2027, 0
  br i1 %9, label %.lr.ph, label %.critedge

.lr.ph:                                           ; preds = %3
  %10 = getelementptr i8, ptr %0, i64 8
  %11 = getelementptr i8, ptr %1, i64 4
  %12 = getelementptr i8, ptr %1, i64 8
  %13 = sext i32 %2 to i64
  br label %14

14:                                               ; preds = %.lr.ph, %77
  %.val20.pre33 = phi i32 [ %.val2027, %.lr.ph ], [ %.val20.pre34, %77 ]
  %.val2031 = phi i32 [ %.val2027, %.lr.ph ], [ %.val20, %77 ]
  %indvars.iv = phi i64 [ 0, %.lr.ph ], [ %indvars.iv.next, %77 ]
  %.029 = phi i32 [ 0, %.lr.ph ], [ %.1, %77 ]
  %.val22 = load ptr, ptr %10, align 8
  %15 = getelementptr inbounds nuw %struct.Vec_Int_t_, ptr %.val22, i64 %indvars.iv
  %16 = add nsw i64 %indvars.iv, %13
  %17 = icmp slt i64 %16, 0
  br i1 %17, label %77, label %18

18:                                               ; preds = %14
  %.val = load i32, ptr %11, align 4
  %19 = sext i32 %.val to i64
  %.not = icmp slt i64 %16, %19
  br i1 %.not, label %20, label %77

20:                                               ; preds = %18
  %.val21 = load ptr, ptr %12, align 8
  %21 = getelementptr inbounds nuw %struct.Vec_Int_t_, ptr %.val21, i64 %16
  %22 = getelementptr i8, ptr %15, i64 4
  %.val23 = load i32, ptr %22, align 4
  %23 = getelementptr i8, ptr %15, i64 8
  %.val24 = load ptr, ptr %23, align 8
  %24 = getelementptr i8, ptr %21, i64 4
  %.val25 = load i32, ptr %24, align 4
  %25 = getelementptr i8, ptr %21, i64 8
  %.val26 = load ptr, ptr %25, align 8
  %26 = sext i32 %.val23 to i64
  %27 = getelementptr inbounds i32, ptr %.val24, i64 %26
  %28 = sext i32 %.val25 to i64
  %29 = getelementptr inbounds i32, ptr %.val26, i64 %28
  store i32 0, ptr %5, align 4
  %30 = icmp sgt i32 %.val23, 0
  %31 = icmp sgt i32 %.val25, 0
  %32 = select i1 %30, i1 %31, i1 false
  br i1 %32, label %.lr.ph.i, label %Vec_IntTwoFindCommonReverse.exit

.lr.ph.i:                                         ; preds = %20, %72
  %.06.i = phi ptr [ %.1.i, %72 ], [ %.val24, %20 ]
  %.0225.i = phi ptr [ %.123.i, %72 ], [ %.val26, %20 ]
  %33 = load i32, ptr %.06.i, align 4
  %34 = load i32, ptr %.0225.i, align 4
  %35 = icmp eq i32 %33, %34
  br i1 %35, label %36, label %66

36:                                               ; preds = %.lr.ph.i
  %37 = load i32, ptr %5, align 4
  %38 = load i32, ptr %4, align 8
  %39 = icmp eq i32 %37, %38
  br i1 %39, label %40, label %.Vec_IntGrow.exit10_crit_edge.i.i

.Vec_IntGrow.exit10_crit_edge.i.i:                ; preds = %36
  %.pre.i.i = load ptr, ptr %7, align 8
  br label %Vec_IntPush.exit.i

40:                                               ; preds = %36
  %41 = icmp slt i32 %37, 16
  br i1 %41, label %42, label %49

42:                                               ; preds = %40
  %43 = load ptr, ptr %7, align 8
  %.not9.i.i.i = icmp eq ptr %43, null
  br i1 %.not9.i.i.i, label %46, label %44

44:                                               ; preds = %42
  %45 = tail call dereferenceable_or_null(64) ptr @realloc(ptr noundef nonnull %43, i64 noundef 64) #21
  br label %Vec_IntGrow.exit.i.i

46:                                               ; preds = %42
  %47 = tail call noalias dereferenceable_or_null(64) ptr @malloc(i64 noundef 64) #19
  br label %Vec_IntGrow.exit.i.i

Vec_IntGrow.exit.i.i:                             ; preds = %46, %44
  %48 = phi ptr [ %45, %44 ], [ %47, %46 ]
  store ptr %48, ptr %7, align 8
  store i32 16, ptr %4, align 8
  br label %Vec_IntPush.exit.i

49:                                               ; preds = %40
  %50 = shl nuw nsw i32 %37, 1
  %51 = load ptr, ptr %7, align 8
  %.not9.i9.i.i = icmp eq ptr %51, null
  %52 = zext nneg i32 %50 to i64
  %53 = shl nuw nsw i64 %52, 2
  br i1 %.not9.i9.i.i, label %56, label %54

54:                                               ; preds = %49
  %55 = tail call ptr @realloc(ptr noundef nonnull %51, i64 noundef %53) #21
  br label %58

56:                                               ; preds = %49
  %57 = tail call noalias ptr @malloc(i64 noundef %53) #19
  br label %58

58:                                               ; preds = %56, %54
  %59 = phi ptr [ %55, %54 ], [ %57, %56 ]
  store ptr %59, ptr %7, align 8
  store i32 %50, ptr %4, align 8
  br label %Vec_IntPush.exit.i

Vec_IntPush.exit.i:                               ; preds = %58, %Vec_IntGrow.exit.i.i, %.Vec_IntGrow.exit10_crit_edge.i.i
  %60 = phi ptr [ %.pre.i.i, %.Vec_IntGrow.exit10_crit_edge.i.i ], [ %59, %58 ], [ %48, %Vec_IntGrow.exit.i.i ]
  %61 = add nsw i32 %37, 1
  store i32 %61, ptr %5, align 4
  %62 = sext i32 %37 to i64
  %63 = getelementptr inbounds i32, ptr %60, i64 %62
  store i32 %33, ptr %63, align 4
  %64 = getelementptr inbounds nuw i8, ptr %.06.i, i64 4
  %65 = getelementptr inbounds nuw i8, ptr %.0225.i, i64 4
  br label %72

66:                                               ; preds = %.lr.ph.i
  %67 = icmp sgt i32 %33, %34
  br i1 %67, label %68, label %70

68:                                               ; preds = %66
  %69 = getelementptr inbounds nuw i8, ptr %.06.i, i64 4
  br label %72

70:                                               ; preds = %66
  %71 = getelementptr inbounds nuw i8, ptr %.0225.i, i64 4
  br label %72

72:                                               ; preds = %70, %68, %Vec_IntPush.exit.i
  %.123.i = phi ptr [ %65, %Vec_IntPush.exit.i ], [ %.0225.i, %68 ], [ %71, %70 ]
  %.1.i = phi ptr [ %64, %Vec_IntPush.exit.i ], [ %69, %68 ], [ %.06.i, %70 ]
  %73 = icmp ult ptr %.1.i, %27
  %74 = icmp ult ptr %.123.i, %29
  %75 = select i1 %73, i1 %74, i1 false
  br i1 %75, label %.lr.ph.i, label %._crit_edge.loopexit.i, !llvm.loop !26

._crit_edge.loopexit.i:                           ; preds = %72
  %.val.pre.i = load i32, ptr %5, align 4
  %.val20.pre.pre = load i32, ptr %8, align 4
  br label %Vec_IntTwoFindCommonReverse.exit

Vec_IntTwoFindCommonReverse.exit:                 ; preds = %20, %._crit_edge.loopexit.i
  %.val20.pre = phi i32 [ %.val20.pre.pre, %._crit_edge.loopexit.i ], [ %.val20.pre33, %20 ]
  %.val.i = phi i32 [ %.val.pre.i, %._crit_edge.loopexit.i ], [ 0, %20 ]
  %76 = add nsw i32 %.val.i, %.029
  br label %77

77:                                               ; preds = %14, %18, %Vec_IntTwoFindCommonReverse.exit
  %.val20.pre34 = phi i32 [ %.val20.pre33, %14 ], [ %.val20.pre33, %18 ], [ %.val20.pre, %Vec_IntTwoFindCommonReverse.exit ]
  %.val20 = phi i32 [ %.val2031, %14 ], [ %.val2031, %18 ], [ %.val20.pre, %Vec_IntTwoFindCommonReverse.exit ]
  %.1 = phi i32 [ %.029, %14 ], [ %.029, %18 ], [ %76, %Vec_IntTwoFindCommonReverse.exit ]
  %indvars.iv.next = add nuw nsw i64 %indvars.iv, 1
  %78 = sext i32 %.val20 to i64
  %79 = icmp slt i64 %indvars.iv.next, %78
  br i1 %79, label %14, label %.critedge.loopexit, !llvm.loop !27

.critedge.loopexit:                               ; preds = %77
  %.pre = load ptr, ptr %7, align 8
  br label %.critedge

.critedge:                                        ; preds = %.critedge.loopexit, %3
  %80 = phi ptr [ %6, %3 ], [ %.pre, %.critedge.loopexit ]
  %.0.lcssa = phi i32 [ 0, %3 ], [ %.1, %.critedge.loopexit ]
  %.not.i = icmp eq ptr %80, null
  br i1 %.not.i, label %Vec_IntFree.exit, label %81

81:                                               ; preds = %.critedge
  tail call void @free(ptr noundef nonnull %80) #20
  br label %Vec_IntFree.exit

Vec_IntFree.exit:                                 ; preds = %.critedge, %81
  tail call void @free(ptr noundef nonnull %4) #20
  ret i32 %.0.lcssa
}